(dp1
S'output'
p2
S"<type 'exceptions.KeyError'> 0"
p3
sS'layer'
p4
S'C:\\Users\\daitoshokan\\Desktop\\web2py\\applications\\SummonerReview\\controllers/default.py'
p5
sS'code'
p6
S'# -*- coding: utf-8 -*-\n# this file is released under public domain and you can use without limitations\n\n\nimport logging\nimport json, urllib\nimport re\n\n\n\ndef welcome():\n    searchBar = SQLFORM.factory(\n                                Field(\'body\', \'string\', default="Type a summoner name.", label=\'Seach\'))    \n    \n    if searchBar.process(formname=\'searchBar\').accepted:\n#         url = "https://na.api.pvp.net/api/lol/na/v1.4/summoner/by-name/"+searchBar.vars.body+"?api_key=97ef62ee-275d-48ed-baa4-d8f5538eb5de"\n#         response = urllib.urlopen(url)\n#         logger.info(response)\n#         #data = json.loads(response.read())\n#         if response.code == 200:\n#             redirect(URL(\'default\', \'index\',args=[searchBar.vars.body]))\n#         else:\n#             session.flash=T("Summoner not found.")\n        redirect(URL(\'default\', \'index\',args=[searchBar.vars.body]))\n        \n    return dict(searchBar=searchBar)\n\n\n#really,version numbers should probably be made global\ndef getSummonerID(summonerName):\n    \n    url = "https://na.api.pvp.net/api/lol/na/v1.4/summoner/by-name/"+summonerName+"?api_key=97ef62ee-275d-48ed-baa4-d8f5538eb5de"\n    response = urllib.urlopen(url)\n    \n    if response.code != 200:\n        return None\n    \n    data = json.loads(response.read())\n    sid = data.values()[0].get(\'id\', None)\n    return str(sid)\n\n\n\n\n@auth.requires_login()\ndef post():\n    \n    \n    \n    \n    return dict(form=SQLFORM(db.comment_post).process(),\n                comments=db(db.comment_post).select())\n\n\n\n\ndef history():\n    title=request.args[0]\n    page=db.pagetable(db.pagetable.title==title)\n    page_id=page.id\n    r = db(db.revision2.rev_id==page_id).select(orderby=~db.revision2.rev_date)\n    return dict(title=title, r=r)\n\n\ndef canReview(mySummonerID, anotherSummoner):\n     \n     \n    matchHistoryURL = "https://na.api.pvp.net/api/lol/na/v2.2/matchhistory/"+mySummonerID+"?endIndex=15&api_key=97ef62ee-275d-48ed-baa4-d8f5538eb5de"\n    response = urllib.urlopen(matchHistoryURL)\n    matchHistoryJSON = json.loads(response.read())\n    matchesList = matchHistoryJSON.values()[0]\n    \n    if response.code != 200:\n        logger.info("Bad stuff")\n        return True\n    \n    canBeReviewed = False\n      \n    "This is not really ideal, but I\'m not sure if it can be made better barring just being approved for more requests/sec."\n    MAXIMUMREQUESTSPERSECOND = 1\n    for i in range(0,MAXIMUMREQUESTSPERSECOND):\n           \n        if canBeReviewed == True:\n            break \n        aMatchID = matchesList[i].get(\'matchId\', None)\n       \n        "With the MatchID, you can now get match(es)"\n       \n        matchDetailsURL = "https://na.api.pvp.net/api/lol/na/v2.2/match/"+str(aMatchID)+"?includeTimeline=false&api_key=97ef62ee-275d-48ed-baa4-d8f5538eb5de"\n        response = urllib.urlopen(matchDetailsURL)\n        matchDetailsJSON = json.loads(response.read())\n       \n       \n        for item in matchDetailsJSON.get("participantIdentities", None):\n            aSummonerName = item.values()[0].get(\'summonerName\', None)\n            #may need to just pass another parameter for summoner instead of reqeust.args(0)\n            if aSummonerName == anotherSummoner and anotherSummoner != str(request.args(0)):\n                canBeReviewed = True\n                break\n            else:\n                continue\n      \n    return canBeReviewed\n\n\ndef getWL(mySummonerID):\n        #note the season.  as a stretch goal, we could do tabs\n    summonerSummaryURL = "https://na.api.pvp.net/api/lol/na/v1.3/stats/by-summoner/"+mySummonerID+"/summary?season=SEASON2015&api_key=97ef62ee-275d-48ed-baa4-d8f5538eb5de"\n    response = urllib.urlopen(summonerSummaryURL)\n    summonerSummary = json.loads(response.read())\n     \n    #the different queues are all in an inconsistently (by summoner) ordered list, so the best thing I know to do is just search for a match\n    for i in range(0,len(summonerSummary.get(\'playerStatSummaries\', None))):\n        if summonerSummary.get(\'playerStatSummaries\', None)[i].get(\'playerStatSummaryType\', None) == "RankedSolo5x5":\n            SoloRanksStats = summonerSummary.get(\'playerStatSummaries\', None)[i]\n            break\n         \n    RankedWins = SoloRanksStats.get(\'wins\', None)\n    RankedLosses = SoloRanksStats.get(\'losses\', None)     \n    \n    return (RankedWins, RankedLosses)\n\ndef countStreak(mySummonerID):\n         \n    #gets 15 games, which may or may not be ok to do if they have played less than that\n    #matchHistoryURL = "https://na.api.pvp.net/api/lol/na/v2.2/matchhistory/"+mySummonerID+"?rankedQueues=RANKED_SOLO_5x5&endIndex=15&api_key=97ef62ee-275d-48ed-baa4-d8f5538eb5de"\n    #eventually maybe make this solo, but it\'s a little easier to test if it\'s all ranked.  Nevermind, it seems to default to solo and not actually fetch all queues.\n    matchHistoryURL = "https://na.api.pvp.net/api/lol/na/v2.2/matchhistory/"+mySummonerID+"?endIndex=15&api_key=97ef62ee-275d-48ed-baa4-d8f5538eb5de"\n    response = urllib.urlopen(matchHistoryURL)\n    matchHistoryJSON = json.loads(response.read())\n    matchesList = matchHistoryJSON.values()[0]\n     \n    aMatch = matchesList[0]\n    #True if a winstreak, false if a losestreak\n    PositiveStreak = aMatch.get(\'participants\', None)[0].get(\'stats\', None).get(\'winner\', None)\n     \n    for i in range(0,len(matchesList)):\n        aMatch = matchesList[i]\n        nextStreak = matchesList[i].get(\'participants\', None)[0].get(\'stats\', None).get(\'winner\', None)\n        if nextStreak == PositiveStreak:\n            continue\n        else:\n            streakLength = i+1\n            break\n     \n      \n     \n     \n    streakType = "Win" if PositiveStreak else "Lose"\n    return (streakType, streakLength)\n    \n\nsummoner = str(request.args(0)) or None\n\n@auth.requires_login() \ndef index():    \n    #eventually will want to use this as a cosnt instead of the hard-coded ones, but it\'s fine for designing since they give the request URLS on the website\n    APIkey = "97ef62ee-275d-48ed-baa4-d8f5538eb5de"\n    \n    title = request.args(0) or \'main_page\' #if request.args(0) is None, show the main wiki page\n    summoner = str(request.args(0)) or None\n    #title = request.args(0) == "banana slug"\n    form = None\n    content = None\n    display_title = title.title()\n    \n    mySummonerID = getSummonerID(summoner)\n    \n    logger.info("summoner:")\n    logger.info(summoner)\n    logger.info("ID:")\n    logger.info(mySummonerID)\n    \n    \n    if mySummonerID == None:\n        redirect(URL(\'default\', \'welcome\')) \n    \n    \n    \n    if summoner:\n        display_title = summoner\n    \n    \n   \n        \n    \n    \n    #url = "https://na.api.pvp.net/api/lol/na/v1.4/summoner/by-name/daitoshokan?api_key=97ef62ee-275d-48ed-baa4-d8f5538eb5de"\n    #response = urllib.urlopen(url)\n    #data = json.loads(response.read())\n    #sid = data[\'id\']\n    #so one thing we\'ll want to do is validate this string instead of asserting \'fucker\'\n    #sid = data.get(\'daitoshokan\', "fucker").get(\'id\', "notmine")\n    #mySummonerID = getSummonerID("\xec\x9e\x98 \xeb\xaa\xbb")\n    \n    \n#     theparticipantsURL = "https://na.api.pvp.net/api/lol/na/v2.2/matchhistory/"+getSummonerID(summoner)+"?api_key=97ef62ee-275d-48ed-baa4-d8f5538eb5de"\n#     response = urllib.urlopen(theparticipantsURL)\n#     data = json.loads(response.read())\n#     theparticipants = data.get(\'matches\', None)[0].get(\'participantIdentities\', None)\n\n\n \n    "We will probably divide this logic out into at least 1 more function, if not 2 or 3"\n    "Consider returning W:L as a tuple"\n     \n    WRTuple = getWL(mySummonerID)\n    RankedWins = WRTuple[0]\n    RankedLosses = WRTuple[1]\n     \n    "End of W:R Code"\n     \n     \n    "This block of code will grab a lot of the information about current league standing, including Hotstreak status, miniseries status, etc."\n    #Note that the league request can return NULL of the person is unranked!!\n    leagueURL = "https://na.api.pvp.net/api/lol/na/v2.5/league/by-summoner/"+mySummonerID+"/entry?api_key=97ef62ee-275d-48ed-baa4-d8f5538eb5de"\n    response = urllib.urlopen(leagueURL)\n    \n    \n    if response.code != 200:\n        summonerTier = None\n        summonerDivision = None\n        summonerisHotStreak = None\n        summonerMiniSeries = None\n    else:\n        leagueJSON = json.loads(response.read())    \n        summonerTier = leagueJSON.values()[0][0].get(\'tier\', None)\n        summonerDivision = leagueJSON.values()[0][0].get(\'entries\', None)[0].get(\'division\', None)\n        summonerisHotStreak = leagueJSON.values()[0][0].get(\'entries\', None)[0].get(\'isHotStreak\', None)\n    #maybe if this is defined it would be a good idea to show what their current miniseries standing is (people tilt in their final)\n    #relevent fields...\n    #miniSeries.progress (string representing progress i.e. WLN or LWN would be the ones to look out for)\n    #miniSeries.losses\n    #miniSeries.wins\n    #miniSeries.target (wins required to promote) \n        summonerMiniSeries = leagueJSON.values()[0][0].get(\'entries\', None)[0].get(\'miniSeries\', None)\n     \n    "End of league related code"\n     \n     \n#     matchHistoryURL = "https://na.api.pvp.net/api/lol/na/v2.2/matchhistory/"+mySummonerID+"?endIndex=15&api_key=97ef62ee-275d-48ed-baa4-d8f5538eb5de"\n#     response = urllib.urlopen(matchHistoryURL)\n#     matchHistoryJSON = json.loads(response.read())\n#    testObject = matchHistoryJSON.values()[0][0].get(\'matchId\', None)\n     \n     \n     \n    "Streak-related code: find their current win or lose streak"\n    streakTuple = countStreak(mySummonerID)\n    streakType = streakTuple[0]\n    streakLength = streakTuple[1]\n    "End of Streak related code"\n     \n     \n     \n     \n    "Posting Authorization"\n    "This code is to control abuse cases like reviewing people you haven\'t played with recently.  It currently does only that, but I will eventually"\n    "also make it so you can\'t double post for the same match and things like that."\n    someJerk = auth.user[\'summoner\'] or "daitoshokan"\n    \n    userCanReview = canReview(mySummonerID, someJerk)\n    canReviewString = "You ("+someJerk+") can review this summoner!" if userCanReview  else "You ("+someJerk+") can NOT review this summoner!" \n    #canReviewString = someJerk+" can review this summoner!" if True else someJerk+" can NOT review this summoner!" \n     \n    "End of posting authorization code."\n     \n     \n    "Page search bar"\n    "Will probably want to authenticate for valid summoners here.  May also want to add auto-completion, but"\n    "That might be better redone with server-side scriptng (jquery)"\n    searchBar = SQLFORM.factory(\n                                Field(\'body\', \'string\', default="Type a summoner name.", label=\'Seach\'))    \n    \n    if searchBar.process(formname=\'searchBar\').accepted:\n#         url = "https://na.api.pvp.net/api/lol/na/v1.4/summoner/by-name/"+searchBar.vars.body+"?api_key=97ef62ee-275d-48ed-baa4-d8f5538eb5de"\n#         response = urllib.urlopen(url)\n#         logger.info(response)\n#         #data = json.loads(response.read())\n#         if response.code == 200:\n#             redirect(URL(\'default\', \'index\',args=[searchBar.vars.body]))\n#         else:\n#             session.flash=T("Summoner not found.")\n        redirect(URL(\'default\', \'index\',args=[searchBar.vars.body]))\n    "End of search-bar logic"\n    \n    \n    \n    \n    \n    \n    \n    page = db(db.pagetable.title == title).select().first()\n    if page is None:\n        db.pagetable.insert(title=title)\n        page = db(db.pagetable.title==title).select().first()\n        page_id = page.id\n    else:\n        page_id = page.id \n    \n    ##if request.args(0) contains a page title...\n    ##lookup that page,\n    ## lookup the most recent revision, and display it\n    rev = db(db.revision.reference_id == page_id).select(orderby=~db.revision.revTime).first() #EET VERKS!\n    #db.revision.insert(page_id=page_id, body=form.vars.body)\n    \n    #r= db.revision(1)\n    s= rev.body if rev is not None else \'\'  #SO DAHS THEES\n    \n    \n    \n    \n    #if r is None:\n        #db.revision.insert(reference_id=page_id, body=form.vars.body)\n    \n\n\n    # Are we editing?\n    editing = request.vars.edit == \'true\'\n    # This is how you can use logging, very useful.\n    logger.info("This is a request for page %r, with editing %r" %\n                 (title, editing))\n    if editing and userCanReview:\n        # We are editing.  Gets the body s of the page.\n        # Creates a form to edit the content s, with s as default.\n        \n        print(page_id)\n\n        form = SQLFORM.factory(Field(\'body\', \'text\',\n                                  label=\'Content\'\n                                ))\n\n        if form.process().accepted:\n            db.revision2.insert(rev_id=page_id, body=form.vars.body)\n            redirect(URL(\'default\', \'index\', args=[title]))      \n        \n#         form = SQLFORM.factory(\n#                                Field(\'recommend\', type=\'boolean\'),\n#                                Field(\'body\', \'text\',\n#                                      label=\'Content\',\n#                                      default=s,\n#                                      widget=markitup_widget\n#                                      ))\n#         # You can easily add extra buttons to forms.\n#         form.add_button(\'Cancel\', URL(\'default\', \'index\', args=[title]))\n#         # Processes the form.\n#         if form.process(formname=\'editBox\').accepted:\n#             # Writes the new content.\n#             if rev is None:\n#                 # First time: we need to insert it.\n#                 db.revision.insert(reference_id = page_id, body = form.vars.body)\n#             else:\n#                 # We update it.\n#                 rev.update_record(body=form.vars.body)\n#             # We redirect here, so we get this page with GET rather than POST,\n#             # and we go out of edit mode.\n#             redirect(URL(\'default\', \'index\',args=[title]))\n        content = form\n     \n     \n     \n        \n    #page=db.pagetable(db.pagetable.title==title)\n    page_id=page.id\n    r = db(db.revision2.rev_id==page_id).select(orderby=~db.revision2.rev_date)\n    #return dict(title=title, r=r)   \n\n\n\n        # We are just displaying the page\n        #q=db(db.revision.page_id == page_id) \n    return dict(display_title=display_title,\n                content=content, \n                editing=editing, \n                title=summoner, \n                sid=mySummonerID,\n                RankedWins=RankedWins, \n                RankedLosses=RankedLosses,\n                summonerTier = summonerTier,\n                #leagueJSON=leagueJSON,\n                summonerDivision=summonerDivision,\n                summonerisHotStreak=summonerisHotStreak,\n                summonerMiniSeries=summonerMiniSeries,\n                testObject = db(db.revision2.rev_id==page_id).select(),\n                streakType = streakType,\n                streakLength = streakLength,\n                canReviewString = canReviewString,\n                searchBar=searchBar,\n                userCanReview=userCanReview\n                )\n\n\ndef markitup_widget(field, value):\n    return TEXTAREA(value,\n                    _name=field.name,\n                    _id="%s_%s" % (field._tablename, field.name),\n                    _class=\'markitup\',\n                    requires=field.requires)\n\n\n\n\n\ndef user():\n    """\n    exposes:\n    http://..../[app]/default/user/login\n    http://..../[app]/default/user/logout\n    http://..../[app]/default/user/register\n    http://..../[app]/default/user/profile\n    http://..../[app]/default/user/retrieve_password\n    http://..../[app]/default/user/change_password\n    http://..../[app]/default/user/manage_users (requires membership in\n    use @auth.requires_login()\n        @auth.requires_membership(\'group name\')\n        @auth.requires_permission(\'read\',\'table name\',record_id)\n    to decorate functions that need access control\n    """\n    return dict(form=auth())\n\n\n@cache.action()\ndef download():\n    """\n    allows downloading of uploaded files\n    http://..../[app]/default/download/[filename]\n    """\n    return response.download(request, db)\n\n\ndef call():\n    """\n    exposes services. for example:\n    http://..../[app]/default/call/jsonrpc\n    decorate with @services.jsonrpc the functions to expose\n    supports xml, json, xmlrpc, jsonrpc, amfrpc, rss, csv\n    """\n    return service()\n\n\n@auth.requires_login() \ndef api():\n    """\n    this is example of API with access control\n    WEB2PY provides Hypermedia API (Collection+JSON) Experimental\n    """\n    from gluon.contrib.hypermedia import Collection\n    rules = {\n        \'<tablename>\': {\'GET\':{},\'POST\':{},\'PUT\':{},\'DELETE\':{}},\n        }\n    return Collection(db).process(request,response,rules)\n\nresponse._vars=response._caller(index)\n'
p7
sS'snapshot'
p8
(dp9
S'exception'
p10
(dp11
S'__hash__'
p12
S"<method-wrapper '__hash__' of exceptions.KeyError object>"
p13
sS'__setattr__'
p14
S"<method-wrapper '__setattr__' of exceptions.KeyError object>"
p15
sS'__reduce_ex__'
p16
S'<built-in method __reduce_ex__ of exceptions.KeyError object>'
p17
sS'__getslice__'
p18
S"<method-wrapper '__getslice__' of exceptions.KeyError object>"
p19
sS'__getitem__'
p20
S"<method-wrapper '__getitem__' of exceptions.KeyError object>"
p21
sS'__setstate__'
p22
S'<built-in method __setstate__ of exceptions.KeyError object>'
p23
sS'__reduce__'
p24
S'<built-in method __reduce__ of exceptions.KeyError object>'
p25
sS'__str__'
p26
S"<method-wrapper '__str__' of exceptions.KeyError object>"
p27
sS'__format__'
p28
S'<built-in method __format__ of exceptions.KeyError object>'
p29
sS'__getattribute__'
p30
S"<method-wrapper '__getattribute__' of exceptions.KeyError object>"
p31
sS'__class__'
p32
S"<type 'exceptions.KeyError'>"
p33
sS'__unicode__'
p34
S'<built-in method __unicode__ of exceptions.KeyError object>'
p35
sS'__delattr__'
p36
S"<method-wrapper '__delattr__' of exceptions.KeyError object>"
p37
sS'__subclasshook__'
p38
S'<built-in method __subclasshook__ of type object>'
p39
sS'__repr__'
p40
S"<method-wrapper '__repr__' of exceptions.KeyError object>"
p41
sS'args'
p42
S'(0,)'
p43
sS'__dict__'
p44
S'{}'
p45
sS'__sizeof__'
p46
S'<built-in method __sizeof__ of exceptions.KeyError object>'
p47
sS'__doc__'
p48
S"'Mapping key not found.'"
p49
sS'__init__'
p50
S"<method-wrapper '__init__' of exceptions.KeyError object>"
p51
sS'__new__'
p52
S'<built-in method __new__ of type object>'
p53
ssS'evalue'
p54
S'0'
sS'request'
p55
cgluon.html
XML_unpickle
p56
(S's\x80_\x00\x00<div><table><tr><td style="font-weight:bold;vertical-align:top;">ajax</td><td style="vertical-align:top;">:</td><td><div>False</div></td></tr><tr><td style="font-weight:bold;vertical-align:top;">application</td><td style="vertical-align:top;">:</td><td><div>SummonerReview</div></td></tr><tr><td style="font-weight:bold;vertical-align:top;">args</td><td style="vertical-align:top;">:</td><td><div><table><tr><td><div>doublelift</div></td></tr></table></div></td></tr><tr><td style="font-weight:bold;vertical-align:top;">cid</td><td style="vertical-align:top;">:</td><td><div>None</div></td></tr><tr><td style="font-weight:bold;vertical-align:top;">client</td><td style="vertical-align:top;">:</td><td><div>127.0.0.1</div></td></tr><tr><td style="font-weight:bold;vertical-align:top;">controller</td><td style="vertical-align:top;">:</td><td><div>default</div></td></tr><tr><td style="font-weight:bold;vertical-align:top;">cookies</td><td style="vertical-align:top;">:</td><td><div><table><tr><td style="font-weight:bold;vertical-align:top;">session_id_admin</td><td style="vertical-align:top;">:</td><td><div>127.0.0.1-ad468b7a-0b3e-440f-beac-4a700273cc09<table><tr><td style="font-weight:bold;vertical-align:top;">comment</td><td style="vertical-align:top;">:</td><td><div></div></td></tr><tr><td style="font-weight:bold;vertical-align:top;">domain</td><td style="vertical-align:top;">:</td><td><div></div></td></tr><tr><td style="font-weight:bold;vertical-align:top;">expires</td><td style="vertical-align:top;">:</td><td><div></div></td></tr><tr><td style="font-weight:bold;vertical-align:top;">httponly</td><td style="vertical-align:top;">:</td><td><div></div></td></tr><tr><td style="font-weight:bold;vertical-align:top;">max-age</td><td style="vertical-align:top;">:</td><td><div></div></td></tr><tr><td style="font-weight:bold;vertical-align:top;">path</td><td style="vertical-align:top;">:</td><td><div></div></td></tr><tr><td style="font-weight:bold;vertical-align:top;">secure</td><td style="vertical-align:top;">:</td><td><div></div></td></tr><tr><td style="font-weight:bold;vertical-align:top;">version</td><td style="vertical-align:top;">:</td><td><div></div></td></tr></table></div></td></tr><tr><td style="font-weight:bold;vertical-align:top;">session_id_summonerreview</td><td style="vertical-align:top;">:</td><td><div>127.0.0.1-f52aeab3-418c-4516-b546-4adc29fe3dc2<table><tr><td style="font-weight:bold;vertical-align:top;">comment</td><td style="vertical-align:top;">:</td><td><div></div></td></tr><tr><td style="font-weight:bold;vertical-align:top;">domain</td><td style="vertical-align:top;">:</td><td><div></div></td></tr><tr><td style="font-weight:bold;vertical-align:top;">expires</td><td style="vertical-align:top;">:</td><td><div></div></td></tr><tr><td style="font-weight:bold;vertical-align:top;">httponly</td><td style="vertical-align:top;">:</td><td><div></div></td></tr><tr><td style="font-weight:bold;vertical-align:top;">max-age</td><td style="vertical-align:top;">:</td><td><div></div></td></tr><tr><td style="font-weight:bold;vertical-align:top;">path</td><td style="vertical-align:top;">:</td><td><div></div></td></tr><tr><td style="font-weight:bold;vertical-align:top;">secure</td><td style="vertical-align:top;">:</td><td><div></div></td></tr><tr><td style="font-weight:bold;vertical-align:top;">version</td><td style="vertical-align:top;">:</td><td><div></div></td></tr></table></div></td></tr><tr><td style="font-weight:bold;vertical-align:top;">session_id_welcome</td><td style="vertical-align:top;">:</td><td><div>127.0.0.1-c07ec7e1-097e-4a81-92c7-6ac9f847e4f8<table><tr><td style="font-weight:bold;vertical-align:top;">comment</td><td style="vertical-align:top;">:</td><td><div></div></td></tr><tr><td style="font-weight:bold;vertical-align:top;">domain</td><td style="vertical-align:top;">:</td><td><div></div></td></tr><tr><td style="font-weight:bold;vertical-align:top;">expires</td><td style="vertical-align:top;">:</td><td><div></div></td></tr><tr><td style="font-weight:bold;vertical-align:top;">httponly</td><td style="vertical-align:top;">:</td><td><div></div></td></tr><tr><td style="font-weight:bold;vertical-align:top;">max-age</td><td style="vertical-align:top;">:</td><td><div></div></td></tr><tr><td style="font-weight:bold;vertical-align:top;">path</td><td style="vertical-align:top;">:</td><td><div></div></td></tr><tr><td style="font-weight:bold;vertical-align:top;">secure</td><td style="vertical-align:top;">:</td><td><div></div></td></tr><tr><td style="font-weight:bold;vertical-align:top;">version</td><td style="vertical-align:top;">:</td><td><div></div></td></tr></table></div></td></tr></table></div></td></tr><tr><td style="font-weight:bold;vertical-align:top;">env</td><td style="vertical-align:top;">:</td><td><div><table><tr><td style="font-weight:bold;vertical-align:top;">HTTP_ACCEPT</td><td style="vertical-align:top;">:</td><td><div>text/html,application/xhtml+xml,application/xml;q=0.9,image/webp,*/*;q=0.8</div></td></tr><tr><td style="font-weight:bold;vertical-align:top;">HTTP_ACCEPT_ENCODING</td><td style="vertical-align:top;">:</td><td><div>gzip, deflate, sdch</div></td></tr><tr><td style="font-weight:bold;vertical-align:top;">HTTP_ACCEPT_LANGUAGE</td><td style="vertical-align:top;">:</td><td><div>en-US,en;q=0.8,ja;q=0.6</div></td></tr><tr><td style="font-weight:bold;vertical-align:top;">HTTP_CACHE_CONTROL</td><td style="vertical-align:top;">:</td><td><div>max-age=0</div></td></tr><tr><td style="font-weight:bold;vertical-align:top;">HTTP_CONNECTION</td><td style="vertical-align:top;">:</td><td><div>keep-alive</div></td></tr><tr><td style="font-weight:bold;vertical-align:top;">HTTP_COOKIE</td><td style="vertical-align:top;">:</td><td><div>session_id_welcome=127.0.0.1-c07ec7e1-097e-4a81-92c7-6ac9f847e4f8; session_id_admin=127.0.0.1-ad468b7a-0b3e-440f-beac-4a700273cc09; session_id_summonerreview=127.0.0.1-f52aeab3-418c-4516-b546-4adc29fe3dc2</div></td></tr><tr><td style="font-weight:bold;vertical-align:top;">HTTP_HOST</td><td style="vertical-align:top;">:</td><td><div>127.0.0.1:8000</div></td></tr><tr><td style="font-weight:bold;vertical-align:top;">HTTP_USER_AGENT</td><td style="vertical-align:top;">:</td><td><div>Mozilla/5.0 (Windows NT 6.3; WOW64) AppleWebKit/537.36 (KHTML, like Gecko) Chrome/41.0.2272.89 Safari/537.36</div></td></tr><tr><td style="font-weight:bold;vertical-align:top;">PATH_INFO</td><td style="vertical-align:top;">:</td><td><div>/SummonerReview/default/index/doublelift</div></td></tr><tr><td style="font-weight:bold;vertical-align:top;">QUERY_STRING</td><td style="vertical-align:top;">:</td><td><div></div></td></tr><tr><td style="font-weight:bold;vertical-align:top;">REMOTE_ADDR</td><td style="vertical-align:top;">:</td><td><div>127.0.0.1</div></td></tr><tr><td style="font-weight:bold;vertical-align:top;">REMOTE_PORT</td><td style="vertical-align:top;">:</td><td><div>57432</div></td></tr><tr><td style="font-weight:bold;vertical-align:top;">REQUEST_METHOD</td><td style="vertical-align:top;">:</td><td><div>GET</div></td></tr><tr><td style="font-weight:bold;vertical-align:top;">SCRIPT_NAME</td><td style="vertical-align:top;">:</td><td><div></div></td></tr><tr><td style="font-weight:bold;vertical-align:top;">SERVER_NAME</td><td style="vertical-align:top;">:</td><td><div>MARIO</div></td></tr><tr><td style="font-weight:bold;vertical-align:top;">SERVER_PORT</td><td style="vertical-align:top;">:</td><td><div>8000</div></td></tr><tr><td style="font-weight:bold;vertical-align:top;">SERVER_PROTOCOL</td><td style="vertical-align:top;">:</td><td><div>HTTP/1.1</div></td></tr><tr><td style="font-weight:bold;vertical-align:top;">SERVER_SOFTWARE</td><td style="vertical-align:top;">:</td><td><div>Rocket 1.2.6</div></td></tr><tr><td style="font-weight:bold;vertical-align:top;">app_folders</td><td style="vertical-align:top;">:</td><td><div>set([&#x27;C:\\\\Users\\\\daitoshokan\\\\Desktop\\\\web2py\\\\applications\\\\SummonerReview\\\\&#x27;, &#x27;C:\\\\Users\\\\daitoshokan\\\\Desktop\\\\web2py\\\\applications\\\\admin\\\\&#x27;, &#x27;C:\\\\Users\\\\daitoshokan\\\\Desktop\\\\web2py\\\\applications\\\\welcome\\\\&#x27;])</div></td></tr><tr><td style="font-weight:bold;vertical-align:top;">applications_parent</td><td style="vertical-align:top;">:</td><td><div>C:\\Users\\daitoshokan\\Desktop\\web2py</div></td></tr><tr><td style="font-weight:bold;vertical-align:top;">cmd_args</td><td style="vertical-align:top;">:</td><td><div><table></table></div></td></tr><tr><td style="font-weight:bold;vertical-align:top;">cmd_options</td><td style="vertical-align:top;">:</td><td><div>&lt;Values at 0x21ad0d0: {&#x27;verbose&#x27;: False, &#x27;ip&#x27;: &#x27;127.0.0.1&#x27;, &#x27;debuglevel&#x27;: 30, &#x27;with_scheduler&#x27;: False, &#x27;ips&#x27;: [&#x27;fe80::7c0b:d614:213b:e13f%15&#x27;, &#x27;fe80::ec6a:72fe:5099:bd3e%4&#x27;, &#x27;25.33.94.185&#x27;, &#x27;2620:9b::1921:5eb9&#x27;, &#x27;128.114.58.57&#x27;], &#x27;shutdown_timeout&#x27;: 5, &#x27;taskbar&#x27;: False, &#x27;with_coverage&#x27;: False, &#x27;scheduler_groups&#x27;: None, &#x27;port&#x27;: 8000, &#x27;maxthreads&#x27;: None, &#x27;softcron&#x27;: False, &#x27;server_name&#x27;: &#x27;MARIO&#x27;, &#x27;bpython&#x27;: False, &#x27;nogui&#x27;: False, &#x27;pid_filename&#x27;: &#x27;httpserver.pid&#x27;, &#x27;extcron&#x27;: False, &#x27;runcron&#x27;: False, &#x27;run_system_tests&#x27;: False, &#x27;test&#x27;: None, &#x27;folder&#x27;: &#x27;C:\\\\Users\\\\daitoshokan\\\\Desktop\\\\web2py&#x27;, &#x27;config&#x27;: &#x27;&#x27;, &#x27;minthreads&#x27;: None, &#x27;shell&#x27;: None, &#x27;run&#x27;: &#x27;&#x27;, &#x27;log_filename&#x27;: &#x27;httpserver.log&#x27;, &#x27;profiler_dir&#x27;: None, &#x27;args&#x27;: [&#x27;&#x27;], &#x27;socket_timeout&#x27;: 5, &#x27;ssl_ca_certificate&#x27;: None, &#x27;scheduler&#x27;: None, &#x27;interfaces&#x27;: None, &#x27;ssl_private_key&#x27;: &#x27;&#x27;, &#x27;gae&#x27;: None, &#x27;password&#x27;: &#x27;&lt;ask&gt;&#x27;, &#x27;request_queue_size&#x27;: 5, &#x27;ssl_certificate&#x27;: &#x27;&#x27;, &#x27;cronjob&#x27;: False, &#x27;numthreads&#x27;: None, &#x27;quiet&#x27;: False, &#x27;import_models&#x27;: False, &#x27;timeout&#x27;: 10, &#x27;plain&#x27;: False, &#x27;nobanner&#x27;: False}&gt;</div></td></tr><tr><td style="font-weight:bold;vertical-align:top;">db_sessions</td><td style="vertical-align:top;">:</td><td><div>set([])</div></td></tr><tr><td style="font-weight:bold;vertical-align:top;">debugging</td><td style="vertical-align:top;">:</td><td><div>False</div></td></tr><tr><td style="font-weight:bold;vertical-align:top;">gluon_parent</td><td style="vertical-align:top;">:</td><td><div>C:\\Users\\daitoshokan\\Desktop\\web2py</div></td></tr><tr><td style="font-weight:bold;vertical-align:top;">http_accept</td><td style="vertical-align:top;">:</td><td><div>text/html,application/xhtml+xml,application/xml;q=0.9,image/webp,*/*;q=0.8</div></td></tr><tr><td style="font-weight:bold;vertical-align:top;">http_accept_encoding</td><td style="vertical-align:top;">:</td><td><div>gzip, deflate, sdch</div></td></tr><tr><td style="font-weight:bold;vertical-align:top;">http_accept_language</td><td style="vertical-align:top;">:</td><td><div>en-US,en;q=0.8,ja;q=0.6</div></td></tr><tr><td style="font-weight:bold;vertical-align:top;">http_cache_control</td><td style="vertical-align:top;">:</td><td><div>max-age=0</div></td></tr><tr><td style="font-weight:bold;vertical-align:top;">http_connection</td><td style="vertical-align:top;">:</td><td><div>keep-alive</div></td></tr><tr><td style="font-weight:bold;vertical-align:top;">http_cookie</td><td style="vertical-align:top;">:</td><td><div>session_id_welcome=127.0.0.1-c07ec7e1-097e-4a81-92c7-6ac9f847e4f8; session_id_admin=127.0.0.1-ad468b7a-0b3e-440f-beac-4a700273cc09; session_id_summonerreview=127.0.0.1-f52aeab3-418c-4516-b546-4adc29fe3dc2</div></td></tr><tr><td style="font-weight:bold;vertical-align:top;">http_host</td><td style="vertical-align:top;">:</td><td><div>127.0.0.1:8000</div></td></tr><tr><td style="font-weight:bold;vertical-align:top;">http_user_agent</td><td style="vertical-align:top;">:</td><td><div>Mozilla/5.0 (Windows NT 6.3; WOW64) AppleWebKit/537.36 (KHTML, like Gecko) Chrome/41.0.2272.89 Safari/537.36</div></td></tr><tr><td style="font-weight:bold;vertical-align:top;">is_jython</td><td style="vertical-align:top;">:</td><td><div>False</div></td></tr><tr><td style="font-weight:bold;vertical-align:top;">is_pypy</td><td style="vertical-align:top;">:</td><td><div>False</div></td></tr><tr><td style="font-weight:bold;vertical-align:top;">is_source</td><td style="vertical-align:top;">:</td><td><div>False</div></td></tr><tr><td style="font-weight:bold;vertical-align:top;">local_hosts</td><td style="vertical-align:top;">:</td><td><div><table><tr><td><div>fe80::7c0b:d614:213b:e13f%15</div></td></tr><tr><td><div>MARIO.adgpm.soe.ucsc.edu</div></td></tr><tr><td><div>::ffff:127.0.0.1</div></td></tr><tr><td><div>::1</div></td></tr><tr><td><div>MARIO</div></td></tr><tr><td><div>fe80::ec6a:72fe:5099:bd3e%4</div></td></tr><tr><td><div>25.33.94.185</div></td></tr><tr><td><div>2620:9b::1921:5eb9</div></td></tr><tr><td><div>128.114.58.57</div></td></tr><tr><td><div>127.0.0.1</div></td></tr></table></div></td></tr><tr><td style="font-weight:bold;vertical-align:top;">path_info</td><td style="vertical-align:top;">:</td><td><div>/SummonerReview/default/index/doublelift</div></td></tr><tr><td style="font-weight:bold;vertical-align:top;">query_string</td><td style="vertical-align:top;">:</td><td><div></div></td></tr><tr><td style="font-weight:bold;vertical-align:top;">remote_addr</td><td style="vertical-align:top;">:</td><td><div>127.0.0.1</div></td></tr><tr><td style="font-weight:bold;vertical-align:top;">remote_port</td><td style="vertical-align:top;">:</td><td><div>57432</div></td></tr><tr><td style="font-weight:bold;vertical-align:top;">request_method</td><td style="vertical-align:top;">:</td><td><div>GET</div></td></tr><tr><td style="font-weight:bold;vertical-align:top;">request_uri</td><td style="vertical-align:top;">:</td><td><div>/SummonerReview/default/index/doublelift</div></td></tr><tr><td style="font-weight:bold;vertical-align:top;">script_name</td><td style="vertical-align:top;">:</td><td><div></div></td></tr><tr><td style="font-weight:bold;vertical-align:top;">server_name</td><td style="vertical-align:top;">:</td><td><div>MARIO</div></td></tr><tr><td style="font-weight:bold;vertical-align:top;">server_port</td><td style="vertical-align:top;">:</td><td><div>8000</div></td></tr><tr><td style="font-weight:bold;vertical-align:top;">server_protocol</td><td style="vertical-align:top;">:</td><td><div>HTTP/1.1</div></td></tr><tr><td style="font-weight:bold;vertical-align:top;">server_software</td><td style="vertical-align:top;">:</td><td><div>Rocket 1.2.6</div></td></tr><tr><td style="font-weight:bold;vertical-align:top;">web2py_path</td><td style="vertical-align:top;">:</td><td><div>C:\\Users\\daitoshokan\\Desktop\\web2py</div></td></tr><tr><td style="font-weight:bold;vertical-align:top;">web2py_version</td><td style="vertical-align:top;">:</td><td><div>2.9.12-stable+timestamp.2015.02.15.23.04.25</div></td></tr><tr><td style="font-weight:bold;vertical-align:top;">wsgi.errors</td><td style="vertical-align:top;">:</td><td><div>&lt;open file &#x27;&lt;stderr&gt;&#x27;, mode &#x27;w&#x27; at 0x002DD0D0&gt;</div></td></tr><tr><td style="font-weight:bold;vertical-align:top;">wsgi.file_wrapper</td><td style="vertical-align:top;">:</td><td><div>&lt;class wsgiref.util.FileWrapper at 0x02E0D960&gt;</div></td></tr><tr><td style="font-weight:bold;vertical-align:top;">wsgi.input</td><td style="vertical-align:top;">:</td><td><div>&lt;socket._fileobject object at 0x0708A7B0&gt;</div></td></tr><tr><td style="font-weight:bold;vertical-align:top;">wsgi.multiprocess</td><td style="vertical-align:top;">:</td><td><div>False</div></td></tr><tr><td style="font-weight:bold;vertical-align:top;">wsgi.multithread</td><td style="vertical-align:top;">:</td><td><div>True</div></td></tr><tr><td style="font-weight:bold;vertical-align:top;">wsgi.run_once</td><td style="vertical-align:top;">:</td><td><div>False</div></td></tr><tr><td style="font-weight:bold;vertical-align:top;">wsgi.url_scheme</td><td style="vertical-align:top;">:</td><td><div>http</div></td></tr><tr><td style="font-weight:bold;vertical-align:top;">wsgi.version</td><td style="vertical-align:top;">:</td><td><div><table><tr><td><div>1</div></td></tr><tr><td><div>0</div></td></tr></table></div></td></tr><tr><td style="font-weight:bold;vertical-align:top;">wsgi_errors</td><td style="vertical-align:top;">:</td><td><div>&lt;open file &#x27;&lt;stderr&gt;&#x27;, mode &#x27;w&#x27; at 0x002DD0D0&gt;</div></td></tr><tr><td style="font-weight:bold;vertical-align:top;">wsgi_file_wrapper</td><td style="vertical-align:top;">:</td><td><div>&lt;class wsgiref.util.FileWrapper at 0x02E0D960&gt;</div></td></tr><tr><td style="font-weight:bold;vertical-align:top;">wsgi_input</td><td style="vertical-align:top;">:</td><td><div>&lt;socket._fileobject object at 0x0708A7B0&gt;</div></td></tr><tr><td style="font-weight:bold;vertical-align:top;">wsgi_multiprocess</td><td style="vertical-align:top;">:</td><td><div>False</div></td></tr><tr><td style="font-weight:bold;vertical-align:top;">wsgi_multithread</td><td style="vertical-align:top;">:</td><td><div>True</div></td></tr><tr><td style="font-weight:bold;vertical-align:top;">wsgi_run_once</td><td style="vertical-align:top;">:</td><td><div>False</div></td></tr><tr><td style="font-weight:bold;vertical-align:top;">wsgi_url_scheme</td><td style="vertical-align:top;">:</td><td><div>http</div></td></tr><tr><td style="font-weight:bold;vertical-align:top;">wsgi_version</td><td style="vertical-align:top;">:</td><td><div><table><tr><td><div>1</div></td></tr><tr><td><div>0</div></td></tr></table></div></td></tr></table></div></td></tr><tr><td style="font-weight:bold;vertical-align:top;">extension</td><td style="vertical-align:top;">:</td><td><div>html</div></td></tr><tr><td style="font-weight:bold;vertical-align:top;">folder</td><td style="vertical-align:top;">:</td><td><div>C:\\Users\\daitoshokan\\Desktop\\web2py\\applications\\SummonerReview\\</div></td></tr><tr><td style="font-weight:bold;vertical-align:top;">function</td><td style="vertical-align:top;">:</td><td><div>index</div></td></tr><tr><td style="font-weight:bold;vertical-align:top;">global_settings</td><td style="vertical-align:top;">:</td><td><div><table><tr><td style="font-weight:bold;vertical-align:top;">app_folders</td><td style="vertical-align:top;">:</td><td><div>set([&#x27;C:\\\\Users\\\\daitoshokan\\\\Desktop\\\\web2py\\\\applications\\\\SummonerReview\\\\&#x27;, &#x27;C:\\\\Users\\\\daitoshokan\\\\Desktop\\\\web2py\\\\applications\\\\admin\\\\&#x27;, &#x27;C:\\\\Users\\\\daitoshokan\\\\Desktop\\\\web2py\\\\applications\\\\welcome\\\\&#x27;])</div></td></tr><tr><td style="font-weight:bold;vertical-align:top;">applications_parent</td><td style="vertical-align:top;">:</td><td><div>C:\\Users\\daitoshokan\\Desktop\\web2py</div></td></tr><tr><td style="font-weight:bold;vertical-align:top;">cmd_args</td><td style="vertical-align:top;">:</td><td><div><table></table></div></td></tr><tr><td style="font-weight:bold;vertical-align:top;">cmd_options</td><td style="vertical-align:top;">:</td><td><div>&lt;Values at 0x21ad0d0: {&#x27;verbose&#x27;: False, &#x27;ip&#x27;: &#x27;127.0.0.1&#x27;, &#x27;debuglevel&#x27;: 30, &#x27;with_scheduler&#x27;: False, &#x27;ips&#x27;: [&#x27;fe80::7c0b:d614:213b:e13f%15&#x27;, &#x27;fe80::ec6a:72fe:5099:bd3e%4&#x27;, &#x27;25.33.94.185&#x27;, &#x27;2620:9b::1921:5eb9&#x27;, &#x27;128.114.58.57&#x27;], &#x27;shutdown_timeout&#x27;: 5, &#x27;taskbar&#x27;: False, &#x27;with_coverage&#x27;: False, &#x27;scheduler_groups&#x27;: None, &#x27;port&#x27;: 8000, &#x27;maxthreads&#x27;: None, &#x27;softcron&#x27;: False, &#x27;server_name&#x27;: &#x27;MARIO&#x27;, &#x27;bpython&#x27;: False, &#x27;nogui&#x27;: False, &#x27;pid_filename&#x27;: &#x27;httpserver.pid&#x27;, &#x27;extcron&#x27;: False, &#x27;runcron&#x27;: False, &#x27;run_system_tests&#x27;: False, &#x27;test&#x27;: None, &#x27;folder&#x27;: &#x27;C:\\\\Users\\\\daitoshokan\\\\Desktop\\\\web2py&#x27;, &#x27;config&#x27;: &#x27;&#x27;, &#x27;minthreads&#x27;: None, &#x27;shell&#x27;: None, &#x27;run&#x27;: &#x27;&#x27;, &#x27;log_filename&#x27;: &#x27;httpserver.log&#x27;, &#x27;profiler_dir&#x27;: None, &#x27;args&#x27;: [&#x27;&#x27;], &#x27;socket_timeout&#x27;: 5, &#x27;ssl_ca_certificate&#x27;: None, &#x27;scheduler&#x27;: None, &#x27;interfaces&#x27;: None, &#x27;ssl_private_key&#x27;: &#x27;&#x27;, &#x27;gae&#x27;: None, &#x27;password&#x27;: &#x27;&lt;ask&gt;&#x27;, &#x27;request_queue_size&#x27;: 5, &#x27;ssl_certificate&#x27;: &#x27;&#x27;, &#x27;cronjob&#x27;: False, &#x27;numthreads&#x27;: None, &#x27;quiet&#x27;: False, &#x27;import_models&#x27;: False, &#x27;timeout&#x27;: 10, &#x27;plain&#x27;: False, &#x27;nobanner&#x27;: False}&gt;</div></td></tr><tr><td style="font-weight:bold;vertical-align:top;">db_sessions</td><td style="vertical-align:top;">:</td><td><div>set([])</div></td></tr><tr><td style="font-weight:bold;vertical-align:top;">debugging</td><td style="vertical-align:top;">:</td><td><div>False</div></td></tr><tr><td style="font-weight:bold;vertical-align:top;">gluon_parent</td><td style="vertical-align:top;">:</td><td><div>C:\\Users\\daitoshokan\\Desktop\\web2py</div></td></tr><tr><td style="font-weight:bold;vertical-align:top;">is_jython</td><td style="vertical-align:top;">:</td><td><div>False</div></td></tr><tr><td style="font-weight:bold;vertical-align:top;">is_pypy</td><td style="vertical-align:top;">:</td><td><div>False</div></td></tr><tr><td style="font-weight:bold;vertical-align:top;">is_source</td><td style="vertical-align:top;">:</td><td><div>False</div></td></tr><tr><td style="font-weight:bold;vertical-align:top;">local_hosts</td><td style="vertical-align:top;">:</td><td><div><table><tr><td><div>fe80::7c0b:d614:213b:e13f%15</div></td></tr><tr><td><div>MARIO.adgpm.soe.ucsc.edu</div></td></tr><tr><td><div>::ffff:127.0.0.1</div></td></tr><tr><td><div>::1</div></td></tr><tr><td><div>MARIO</div></td></tr><tr><td><div>fe80::ec6a:72fe:5099:bd3e%4</div></td></tr><tr><td><div>25.33.94.185</div></td></tr><tr><td><div>2620:9b::1921:5eb9</div></td></tr><tr><td><div>128.114.58.57</div></td></tr><tr><td><div>127.0.0.1</div></td></tr></table></div></td></tr><tr><td style="font-weight:bold;vertical-align:top;">web2py_version</td><td style="vertical-align:top;">:</td><td><div>2.9.12-stable+timestamp.2015.02.15.23.04.25</div></td></tr></table></div></td></tr><tr><td style="font-weight:bold;vertical-align:top;">is_https</td><td style="vertical-align:top;">:</td><td><div>False</div></td></tr><tr><td style="font-weight:bold;vertical-align:top;">is_local</td><td style="vertical-align:top;">:</td><td><div>True</div></td></tr><tr><td style="font-weight:bold;vertical-align:top;">is_restful</td><td style="vertical-align:top;">:</td><td><div>False</div></td></tr><tr><td style="font-weight:bold;vertical-align:top;">is_sheduler</td><td style="vertical-align:top;">:</td><td><div>None</div></td></tr><tr><td style="font-weight:bold;vertical-align:top;">is_shell</td><td style="vertical-align:top;">:</td><td><div>None</div></td></tr><tr><td style="font-weight:bold;vertical-align:top;">now</td><td style="vertical-align:top;">:</td><td><div>datetime.datetime(2015, 3, 17, 11, 4, 17, 626000)</div></td></tr><tr><td style="font-weight:bold;vertical-align:top;">raw_args</td><td style="vertical-align:top;">:</td><td><div>doublelift</div></td></tr><tr><td style="font-weight:bold;vertical-align:top;">raw_extension</td><td style="vertical-align:top;">:</td><td><div>None</div></td></tr><tr><td style="font-weight:bold;vertical-align:top;">url</td><td style="vertical-align:top;">:</td><td><div>/SummonerReview/default/index/doublelift</div></td></tr><tr><td style="font-weight:bold;vertical-align:top;">utcnow</td><td style="vertical-align:top;">:</td><td><div>datetime.datetime(2015, 3, 17, 18, 4, 17, 626000)</div></td></tr><tr><td style="font-weight:bold;vertical-align:top;">uuid</td><td style="vertical-align:top;">:</td><td><div>SummonerReview/127.0.0.1.2015-03-17.11-04-17.e278c97a-4499-4bd8-9889-3c13db657414</div></td></tr><tr><td style="font-weight:bold;vertical-align:top;">wsgi</td><td style="vertical-align:top;">:</td><td><div>&lt;gluon.main.LazyWSGI object at 0x078BC510&gt;</div></td></tr></table></div>'
tRp57
sS'frames'
p58
(lp59
(dp60
S'file'
p61
S'C:\\Users\\daitoshokan\\Desktop\\web2py\\gluon\\restricted.py'
p62
sS'dump'
p63
(dp64
S'environment'
p65
S"{'A': <class 'gluon.html.A'>, 'ANY_OF': <class 'gluon.validators.ANY_OF'>, 'ASSIGNJS': <function ASSIGNJS>, 'Auth': <class 'gluon.tools.Auth'>, 'B': <class 'gluon.html.B'>, 'BEAUTIFY': <class 'gluon.html.BEAUTIFY'>, 'BODY': <class 'gluon.html.BODY'>, 'BR': <class 'gluon.html.BR'>, 'BUTTON': <class 'gluon.html.BUTTON'>, 'CAT': <class 'gluon.html.CAT'>, ...}"
p66
sS'ccode'
p67
S'<code object <module> at 06EE0968, file "C:\\User...s\\SummonerReview\\controllers/default.py", line 5>'
p68
ssS'lnum'
p69
I224
sS'lines'
p70
(dp71
I224
S'        exec ccode in environment'
p72
sI225
S'    except HTTP:'
p73
sI226
S'        raise'
p74
sI227
S'    except RestrictedError:'
p75
sI228
S'        # do not encapsulate (obfuscate) the original RestrictedError'
p76
sI219
S'    try:'
p77
sI220
S'        if isinstance(code, types.CodeType):'
p78
sI221
S'            ccode = code'
p79
sI222
S'        else:'
p80
sI223
S'            ccode = compile2(code, layer)'
p81
ssS'call'
p82
S"(code='# -*- coding: utf-8 -*-\\n# this file is released ...e,rules)\\n\\nresponse._vars=response._caller(index)\\n', environment={'A': <class 'gluon.html.A'>, 'ANY_OF': <class 'gluon.validators.ANY_OF'>, 'ASSIGNJS': <function ASSIGNJS>, 'Auth': <class 'gluon.tools.Auth'>, 'B': <class 'gluon.html.B'>, 'BEAUTIFY': <class 'gluon.html.BEAUTIFY'>, 'BODY': <class 'gluon.html.BODY'>, 'BR': <class 'gluon.html.BR'>, 'BUTTON': <class 'gluon.html.BUTTON'>, 'CAT': <class 'gluon.html.CAT'>, ...}, layer=r'C:\\Users\\daitoshokan\\Desktop\\web2py\\applications\\SummonerReview\\controllers/default.py')"
p83
sS'func'
p84
S'restricted'
p85
sa(dp86
g61
S'C:\\Users\\daitoshokan\\Desktop\\web2py\\applications\\SummonerReview\\controllers\\default.py'
p87
sg63
(dp88
sg69
I453
sg70
(dp89
I448
S'    rules = {'
p90
sI449
S"        '<tablename>': {'GET':{},'POST':{},'PUT':{},'DELETE':{}},"
p91
sI450
S'        }'
p92
sI451
S'    return Collection(db).process(request,response,rules)'
p93
sI442
S'def api():'
p94
sI443
S'    """'
p95
sI444
S'    this is example of API with access control'
p96
sI445
S'    WEB2PY provides Hypermedia API (Collection+JSON) Experimental'
p97
sI446
S'    """'
p98
sI447
S'    from gluon.contrib.hypermedia import Collection'
p99
ssg82
S'()'
p100
sg84
S'<module>'
p101
sa(dp102
g61
S'C:\\Users\\daitoshokan\\Desktop\\web2py\\gluon\\globals.py'
p103
sg63
(dp104
S'self'
p105
S'undefined'
p106
sS'f'
S'<function index>'
p107
ssg69
I393
sg70
(dp108
I388
S"        self.flash = ''            # used by the default view layout"
p109
sI389
S'        self.meta = Storage()      # used by web2py_ajax.html'
p110
sI390
S'        self.menu = []             # used by the default view layout'
p111
sI391
S'        self.files = []            # used by web2py_ajax.html'
p112
sI392
S'        self._vars = None'
p113
sI393
S'        self._caller = lambda f: f()'
p114
sI394
S'        self._view_environment = None'
p115
sI395
S'        self._custom_commit = None'
p116
sI396
S'        self._custom_rollback = None'
p117
sI397
S"        self.generic_patterns = ['*']"
p118
ssg82
S'(f=<function index>)'
p119
sg84
S'<lambda>'
p120
sa(dp121
g61
S'C:\\Users\\daitoshokan\\Desktop\\web2py\\gluon\\tools.py'
p122
sg63
(dp123
S'action'
p124
S'<function index>'
p125
sS'a'
S'()'
p126
sS'b'
g45
ssg69
I3449
sg70
(dp127
I3444
S'                    flag = condition'
p128
sI3445
S'                if not flag:'
p129
sI3446
S'                    current.session.flash = self.messages.access_denied'
p130
sI3447
S'                    return call_or_redirect('
p131
sI3448
S'                        self.settings.on_failed_authorization)'
p132
sI3449
S'                return action(*a, **b)'
p133
sI3450
S'            f.__doc__ = action.__doc__'
p134
sI3451
S'            f.__name__ = action.__name__'
p135
sI3452
S'            f.__dict__.update(action.__dict__)'
p136
sI3453
S'            return f'
p137
ssg82
S'(*a=(), **b={})'
p138
sg84
S'f'
sa(dp139
g61
S'C:\\Users\\daitoshokan\\Desktop\\web2py\\applications\\SummonerReview\\controllers\\default.py'
p140
sg63
(dp141
S'global countStreak'
p142
S'<function countStreak>'
p143
sS'mySummonerID'
p144
S"'20132258'"
p145
sS'streakTuple'
p146
g106
ssg69
I249
sg70
(dp147
I244
S"#    testObject = matchHistoryJSON.values()[0][0].get('matchId', None)"
p148
sI245
S''
sI246
S''
sI247
S''
sI248
S'    "Streak-related code: find their current win or lose streak"'
p149
sI249
S'    streakTuple = countStreak(mySummonerID)'
p150
sI250
S'    streakType = streakTuple[0]'
p151
sI251
S'    streakLength = streakTuple[1]'
p152
sI252
S'    "End of Streak related code"'
p153
sI253
S''
ssg82
S'()'
p154
sg84
S'index'
p155
sa(dp156
g61
S'C:\\Users\\daitoshokan\\Desktop\\web2py\\applications\\SummonerReview\\controllers\\default.py'
p157
sg63
(dp158
S'matchesList'
p159
S"{u'message': u'Rate limit exceeded', u'status_code': 429}"
p160
sS'aMatch'
p161
g106
ssg69
I133
sg70
(dp162
I128
S'    matchHistoryURL = "https://na.api.pvp.net/api/lol/na/v2.2/matchhistory/"+mySummonerID+"?endIndex=15&api_key=97ef62ee-275d-48ed-baa4-d8f5538eb5de"'
p163
sI129
S'    response = urllib.urlopen(matchHistoryURL)'
p164
sI130
S'    matchHistoryJSON = json.loads(response.read())'
p165
sI131
S'    matchesList = matchHistoryJSON.values()[0]'
p166
sI132
S''
sI133
S'    aMatch = matchesList[0]'
p167
sI134
S'    #True if a winstreak, false if a losestreak'
p168
sI135
S"    PositiveStreak = aMatch.get('participants', None)[0].get('stats', None).get('winner', None)"
p169
sI136
S''
sI137
S'    for i in range(0,len(matchesList)):'
p170
ssg82
S"(mySummonerID='20132258')"
p171
sg84
S'countStreak'
p172
sasS'pyver'
p173
S'Python 2.7.9: C:\\Users\\daitoshokan\\Desktop\\web2py\\web2py.exe (prefix: C:\\Python27)'
p174
sS'session'
p175
g56
(S's\x93\n\x00\x00<div><table><tr><td style="font-weight:bold;vertical-align:top;">auth</td><td style="vertical-align:top;">:</td><td><div><table><tr><td style="font-weight:bold;vertical-align:top;">expiration</td><td style="vertical-align:top;">:</td><td><div>3600</div></td></tr><tr><td style="font-weight:bold;vertical-align:top;">hmac_key</td><td style="vertical-align:top;">:</td><td><div>fc406844-9911-4f8c-8ccc-a8fd6b8ea55a</div></td></tr><tr><td style="font-weight:bold;vertical-align:top;">last_visit</td><td style="vertical-align:top;">:</td><td><div>datetime.datetime(2015, 3, 17, 11, 1, 16, 968000)</div></td></tr><tr><td style="font-weight:bold;vertical-align:top;">remember_me</td><td style="vertical-align:top;">:</td><td><div>False</div></td></tr><tr><td style="font-weight:bold;vertical-align:top;">user</td><td style="vertical-align:top;">:</td><td><div><table><tr><td style="font-weight:bold;vertical-align:top;">email</td><td style="vertical-align:top;">:</td><td><div>gknoble@gmail.com</div></td></tr><tr><td style="font-weight:bold;vertical-align:top;">first_name</td><td style="vertical-align:top;">:</td><td><div>Charles</div></td></tr><tr><td style="font-weight:bold;vertical-align:top;">id</td><td style="vertical-align:top;">:</td><td><div>1L</div></td></tr><tr><td style="font-weight:bold;vertical-align:top;">last_name</td><td style="vertical-align:top;">:</td><td><div>Knoble</div></td></tr><tr><td style="font-weight:bold;vertical-align:top;">registration_id</td><td style="vertical-align:top;">:</td><td><div></div></td></tr><tr><td style="font-weight:bold;vertical-align:top;">registration_key</td><td style="vertical-align:top;">:</td><td><div></div></td></tr><tr><td style="font-weight:bold;vertical-align:top;">reset_password_key</td><td style="vertical-align:top;">:</td><td><div></div></td></tr><tr><td style="font-weight:bold;vertical-align:top;">summoner</td><td style="vertical-align:top;">:</td><td><div>aphromoo</div></td></tr></table></div></td></tr><tr><td style="font-weight:bold;vertical-align:top;">user_groups</td><td style="vertical-align:top;">:</td><td><div><table><tr><td style="font-weight:bold;vertical-align:top;">1</td><td style="vertical-align:top;">:</td><td><div>user_1</div></td></tr></table></div></td></tr></table></div></td></tr><tr><td style="font-weight:bold;vertical-align:top;">flash</td><td style="vertical-align:top;">:</td><td><div>None</div></td></tr><tr><td style="font-weight:bold;vertical-align:top;">last_orderby</td><td style="vertical-align:top;">:</td><td><div>None</div></td></tr><tr><td style="font-weight:bold;vertical-align:top;">last_query</td><td style="vertical-align:top;">:</td><td><div>db.revision2.id&gt;0</div></td></tr></table></div>'
tRp176
sS'etype'
p177
S"<type 'exceptions.KeyError'>"
p178
sS'date'
p179
S'Tue Mar 17 11:04:17 2015'
p180
sS'response'
p181
g56
(S's/3\x00\x00<div><table><tr><td style="font-weight:bold;vertical-align:top;">body</td><td style="vertical-align:top;">:</td><td><div>&lt;cStringIO.StringO object at 0x078BCD00&gt;</div></td></tr><tr><td style="font-weight:bold;vertical-align:top;">cookies</td><td style="vertical-align:top;">:</td><td><div><table><tr><td style="font-weight:bold;vertical-align:top;">session_id_summonerreview</td><td style="vertical-align:top;">:</td><td><div>127.0.0.1-f52aeab3-418c-4516-b546-4adc29fe3dc2<table><tr><td style="font-weight:bold;vertical-align:top;">comment</td><td style="vertical-align:top;">:</td><td><div></div></td></tr><tr><td style="font-weight:bold;vertical-align:top;">domain</td><td style="vertical-align:top;">:</td><td><div></div></td></tr><tr><td style="font-weight:bold;vertical-align:top;">expires</td><td style="vertical-align:top;">:</td><td><div></div></td></tr><tr><td style="font-weight:bold;vertical-align:top;">httponly</td><td style="vertical-align:top;">:</td><td><div></div></td></tr><tr><td style="font-weight:bold;vertical-align:top;">max-age</td><td style="vertical-align:top;">:</td><td><div></div></td></tr><tr><td style="font-weight:bold;vertical-align:top;">path</td><td style="vertical-align:top;">:</td><td><div>/</div></td></tr><tr><td style="font-weight:bold;vertical-align:top;">secure</td><td style="vertical-align:top;">:</td><td><div></div></td></tr><tr><td style="font-weight:bold;vertical-align:top;">version</td><td style="vertical-align:top;">:</td><td><div></div></td></tr></table></div></td></tr></table></div></td></tr><tr><td style="font-weight:bold;vertical-align:top;">delimiters</td><td style="vertical-align:top;">:</td><td><div><table><tr><td><div>{{</div></td></tr><tr><td><div>}}</div></td></tr></table></div></td></tr><tr><td style="font-weight:bold;vertical-align:top;">files</td><td style="vertical-align:top;">:</td><td><div><table></table></div></td></tr><tr><td style="font-weight:bold;vertical-align:top;">flash</td><td style="vertical-align:top;">:</td><td><div></div></td></tr><tr><td style="font-weight:bold;vertical-align:top;">form_label_separator</td><td style="vertical-align:top;">:</td><td><div>: </div></td></tr><tr><td style="font-weight:bold;vertical-align:top;">formstyle</td><td style="vertical-align:top;">:</td><td><div>table3cols</div></td></tr><tr><td style="font-weight:bold;vertical-align:top;">generic_patterns</td><td style="vertical-align:top;">:</td><td><div><table><tr><td><div>*</div></td></tr></table></div></td></tr><tr><td style="font-weight:bold;vertical-align:top;">google_analytics_id</td><td style="vertical-align:top;">:</td><td><div>None</div></td></tr><tr><td style="font-weight:bold;vertical-align:top;">headers</td><td style="vertical-align:top;">:</td><td><div><table><tr><td style="font-weight:bold;vertical-align:top;">X-Powered-By</td><td style="vertical-align:top;">:</td><td><div>web2py</div></td></tr></table></div></td></tr><tr><td style="font-weight:bold;vertical-align:top;">logo</td><td style="vertical-align:top;">:</td><td><div><a class="brand" href="http://www.web2py.com/"><b>web<span>2</span>py</b>&trade;&nbsp;</a></div></td></tr><tr><td style="font-weight:bold;vertical-align:top;">menu</td><td style="vertical-align:top;">:</td><td><div><table><tr><td><div><table><tr><td><div>Home</div></td></tr><tr><td><div>False</div></td></tr><tr><td><div>/SummonerReview/default/index</div></td></tr><tr><td><div><table></table></div></td></tr></table></div></td></tr><tr><td><div><table><tr><td><div><span class="highlighted">web2py</span></div></td></tr><tr><td><div>False</div></td></tr><tr><td><div>http://web2py.com</div></td></tr><tr><td><div><table><tr><td><div><table><tr><td><div>My Sites</div></td></tr><tr><td><div>False</div></td></tr><tr><td><div>/admin/default/site</div></td></tr></table></div></td></tr><tr><td><div><table><tr><td><div>This App</div></td></tr><tr><td><div>False</div></td></tr><tr><td><div>/admin/default/design/SummonerReview</div></td></tr><tr><td><div>[(&lt;lazyT &#x27;Controller&#x27;&gt;, False, &#x27;/admin/default/edit/SummonerReview/controllers/default.py&#x27;), (&lt;lazyT &#x27;View&#x27;&gt;, False, &#x27;/admin/default/edit/SummonerReview/views/default/index.html&#x27;), (&lt;lazyT &#x27;Layout&#x27;&gt;, False, &#x27;/admin/default/edit/SummonerReview/views/layout.html&#x27;), (&lt;lazyT &#x27;Stylesheet&#x27;&gt;, False, &#x27;/admin/default/edit/SummonerReview/static/css/web2py.css&#x27;), (&lt;lazyT &#x27;DB Model&#x27;&gt;, False, &#x27;/admin/default/edit/SummonerReview/models/db.py&#x27;), (&lt;lazyT &#x27;Menu Model&#x27;&gt;, False, &#x27;/admin/default/edit/SummonerReview/models/menu.py&#x27;), (&lt;lazyT &#x27;Database&#x27;&gt;, False, &#x27;/SummonerReview/appadmin/index&#x27;), (&lt;lazyT &#x27;Errors&#x27;&gt;, False, &#x27;/admin/default/errors/SummonerReview&#x27;), (&lt;lazyT &#x27;About&#x27;&gt;, False, &#x27;/admin/default/about/SummonerReview&#x27;)]</div></td></tr></table></div></td></tr><tr><td><div><table><tr><td><div>web2py.com</div></td></tr><tr><td><div>False</div></td></tr><tr><td><div>http://www.web2py.com</div></td></tr><tr><td><div>[(&lt;lazyT &#x27;Download&#x27;&gt;, False, &#x27;http://www.web2py.com/examples/default/download&#x27;), (&lt;lazyT &#x27;Support&#x27;&gt;, False, &#x27;http://www.web2py.com/examples/default/support&#x27;), (&lt;lazyT &#x27;Demo&#x27;&gt;, False, &#x27;http://web2py.com/demo_admin&#x27;), (&lt;lazyT &#x27;Quick Examples&#x27;&gt;, False, &#x27;http://web2py.com/examples/default/examples&#x27;), (&lt;lazyT &#x27;FAQ&#x27;&gt;, False, &#x27;http://web2py.com/AlterEgo&#x27;), (&lt;lazyT &#x27;Videos&#x27;&gt;, False, &#x27;http://www.web2py.com/examples/default/videos/&#x27;), (&lt;lazyT &#x27;Free Applications&#x27;&gt;, False, &#x27;http://web2py.com/appliances&#x27;), (&lt;lazyT &#x27;Plugins&#x27;&gt;, False, &#x27;http://web2py.com/plugins&#x27;), (&lt;lazyT &#x27;Layouts&#x27;&gt;, False, &#x27;http://web2py.com/layouts&#x27;), (&lt;lazyT &#x27;Recipes&#x27;&gt;, False, &#x27;http://web2pyslices.com/&#x27;), (&lt;lazyT &#x27;Semantic&#x27;&gt;, False, &#x27;http://web2py.com/semantic&#x27;)]</div></td></tr></table></div></td></tr><tr><td><div><table><tr><td><div>Documentation</div></td></tr><tr><td><div>False</div></td></tr><tr><td><div>http://www.web2py.com/book</div></td></tr><tr><td><div>[(&lt;lazyT &#x27;Preface&#x27;&gt;, False, &#x27;http://www.web2py.com/book/default/chapter/00&#x27;), (&lt;lazyT &#x27;Introduction&#x27;&gt;, False, &#x27;http://www.web2py.com/book/default/chapter/01&#x27;), (&lt;lazyT &#x27;Python&#x27;&gt;, False, &#x27;http://www.web2py.com/book/default/chapter/02&#x27;), (&lt;lazyT &#x27;Overview&#x27;&gt;, False, &#x27;http://www.web2py.com/book/default/chapter/03&#x27;), (&lt;lazyT &#x27;The Core&#x27;&gt;, False, &#x27;http://www.web2py.com/book/default/chapter/04&#x27;), (&lt;lazyT &#x27;The Views&#x27;&gt;, False, &#x27;http://www.web2py.com/book/default/chapter/05&#x27;), (&lt;lazyT &#x27;Database&#x27;&gt;, False, &#x27;http://www.web2py.com/book/default/chapter/06&#x27;), (&lt;lazyT &#x27;Forms and Validators&#x27;&gt;, False, &#x27;http://www.web2py.com/book/default/chapter/07&#x27;), (&lt;lazyT &#x27;Email and SMS&#x27;&gt;, False, &#x27;http://www.web2py.com/book/default/chapter/08&#x27;), (&lt;lazyT &#x27;Access Control&#x27;&gt;, False, &#x27;http://www.web2py.com/book/default/chapter/09&#x27;), (&lt;lazyT &#x27;Services&#x27;&gt;, False, &#x27;http://www.web2py.com/book/default/chapter/10&#x27;), (&lt;lazyT &#x27;Ajax Recipes&#x27;&gt;, False, &#x27;http://www.web2py.com/book/default/chapter/11&#x27;), (&lt;lazyT &#x27;Components and Plugins&#x27;&gt;, False, &#x27;http://www.web2py.com/book/default/chapter/12&#x27;), (&lt;lazyT &#x27;Deployment Recipes&#x27;&gt;, False, &#x27;http://www.web2py.com/book/default/chapter/13&#x27;), (&lt;lazyT &#x27;Other Recipes&#x27;&gt;, False, &#x27;http://www.web2py.com/book/default/chapter/14&#x27;), (&lt;lazyT &#x27;Buy this book&#x27;&gt;, False, &#x27;http://stores.lulu.com/web2py&#x27;)]</div></td></tr></table></div></td></tr><tr><td><div><table><tr><td><div>Community</div></td></tr><tr><td><div>False</div></td></tr><tr><td><div>None</div></td></tr><tr><td><div>[(&lt;lazyT &#x27;Groups&#x27;&gt;, False, &#x27;http://www.web2py.com/examples/default/usergroups&#x27;), (&lt;lazyT &#x27;Twitter&#x27;&gt;, False, &#x27;http://twitter.com/web2py&#x27;), (&lt;lazyT &#x27;Live Chat&#x27;&gt;, False, &#x27;http://webchat.freenode.net/?channels=web2py&#x27;)]</div></td></tr></table></div></td></tr><tr><td><div><table><tr><td><div>Plugins</div></td></tr><tr><td><div>False</div></td></tr><tr><td><div>None</div></td></tr><tr><td><div>[(&#x27;plugin_wiki&#x27;, False, &#x27;http://web2py.com/examples/default/download&#x27;), (&lt;lazyT &#x27;Other Plugins&#x27;&gt;, False, &#x27;http://web2py.com/plugins&#x27;), (&lt;lazyT &#x27;Layout Plugins&#x27;&gt;, False, &#x27;http://web2py.com/layouts&#x27;)]</div></td></tr></table></div></td></tr></table></div></td></tr></table></div></td></tr></table></div></td></tr><tr><td style="font-weight:bold;vertical-align:top;">meta</td><td style="vertical-align:top;">:</td><td><div><table><tr><td style="font-weight:bold;vertical-align:top;">author</td><td style="vertical-align:top;">:</td><td><div>Your Name &lt;you@example.com&gt;</div></td></tr><tr><td style="font-weight:bold;vertical-align:top;">generator</td><td style="vertical-align:top;">:</td><td><div>Web2py Web Framework</div></td></tr><tr><td style="font-weight:bold;vertical-align:top;">keywords</td><td style="vertical-align:top;">:</td><td><div>web2py, python, framework</div></td></tr></table></div></td></tr><tr><td style="font-weight:bold;vertical-align:top;">models_to_run</td><td style="vertical-align:top;">:</td><td><div><table><tr><td><div>^\\w+\\.py$</div></td></tr><tr><td><div>^default/\\w+\\.py$</div></td></tr><tr><td><div>^default/index/\\w+\\.py$</div></td></tr></table></div></td></tr><tr><td style="font-weight:bold;vertical-align:top;">postprocessing</td><td style="vertical-align:top;">:</td><td><div><table></table></div></td></tr><tr><td style="font-weight:bold;vertical-align:top;">session_client</td><td style="vertical-align:top;">:</td><td><div>127.0.0.1</div></td></tr><tr><td style="font-weight:bold;vertical-align:top;">session_cookie_compression_level</td><td style="vertical-align:top;">:</td><td><div>None</div></td></tr><tr><td style="font-weight:bold;vertical-align:top;">session_cookie_expires</td><td style="vertical-align:top;">:</td><td><div>None</div></td></tr><tr><td style="font-weight:bold;vertical-align:top;">session_cookie_key</td><td style="vertical-align:top;">:</td><td><div>None</div></td></tr><tr><td style="font-weight:bold;vertical-align:top;">session_data_name</td><td style="vertical-align:top;">:</td><td><div>session_data_summonerreview</div></td></tr><tr><td style="font-weight:bold;vertical-align:top;">session_file</td><td style="vertical-align:top;">:</td><td><div>&lt;open file &#x27;C:\\\\Users\\\\daitoshokan\\\\Desktop\\\\web2py\\\\applications\\\\SummonerReview\\\\sessions\\\\00d\\\\01b\\\\127.0.0.1-f52aeab3-418c-4516-b546-4adc29fe3dc2&#x27;, mode &#x27;rb+&#x27; at 0x07087E38&gt;</div></td></tr><tr><td style="font-weight:bold;vertical-align:top;">session_filename</td><td style="vertical-align:top;">:</td><td><div>C:\\Users\\daitoshokan\\Desktop\\web2py\\applications\\SummonerReview\\sessions\\127.0.0.1-f52aeab3-418c-4516-b546-4adc29fe3dc2</div></td></tr><tr><td style="font-weight:bold;vertical-align:top;">session_hash</td><td style="vertical-align:top;">:</td><td><div>e2c79db6fa4d7219c2e9761212282801</div></td></tr><tr><td style="font-weight:bold;vertical-align:top;">session_id</td><td style="vertical-align:top;">:</td><td><div>127.0.0.1-f52aeab3-418c-4516-b546-4adc29fe3dc2</div></td></tr><tr><td style="font-weight:bold;vertical-align:top;">session_id_name</td><td style="vertical-align:top;">:</td><td><div>session_id_summonerreview</div></td></tr><tr><td style="font-weight:bold;vertical-align:top;">session_locked</td><td style="vertical-align:top;">:</td><td><div>True</div></td></tr><tr><td style="font-weight:bold;vertical-align:top;">session_masterapp</td><td style="vertical-align:top;">:</td><td><div>SummonerReview</div></td></tr><tr><td style="font-weight:bold;vertical-align:top;">session_new</td><td style="vertical-align:top;">:</td><td><div>False</div></td></tr><tr><td style="font-weight:bold;vertical-align:top;">session_storage_type</td><td style="vertical-align:top;">:</td><td><div>file</div></td></tr><tr><td style="font-weight:bold;vertical-align:top;">status</td><td style="vertical-align:top;">:</td><td><div>200</div></td></tr><tr><td style="font-weight:bold;vertical-align:top;">subtitle</td><td style="vertical-align:top;">:</td><td><div></div></td></tr><tr><td style="font-weight:bold;vertical-align:top;">title</td><td style="vertical-align:top;">:</td><td><div>Summonerreview</div></td></tr><tr><td style="font-weight:bold;vertical-align:top;">view</td><td style="vertical-align:top;">:</td><td><div>default/index.html</div></td></tr></table></div>'
tRp182
sS'locals'
p183
(dp184
S'matchesList'
p185
S"{u'message': u'Rate limit exceeded', u'status_code': 429}"
p186
sS'mySummonerID'
p187
S"'20132258'"
p188
sS'matchHistoryJSON'
p189
S"{u'status': {u'message': u'Rate limit exceeded', u'status_code': 429}}"
p190
sg181
S'<addinfourl at 118129928 whose fp = <socket._fileobject object>>'
p191
sS'matchHistoryURL'
p192
S"'https://na.api.pvp.net/api/lol/na/v2.2/matchhist...x=15&api_key=97ef62ee-275d-48ed-baa4-d8f5538eb5de'"
p193
sssS'traceback'
p194
S'Traceback (most recent call last):\n  File "C:\\Users\\daitoshokan\\Desktop\\web2py\\gluon\\restricted.py", line 224, in restricted\n    exec ccode in environment\n  File "C:\\Users\\daitoshokan\\Desktop\\web2py\\applications\\SummonerReview\\controllers/default.py", line 453, in <module>\n  File "C:\\Users\\daitoshokan\\Desktop\\web2py\\gluon\\globals.py", line 393, in <lambda>\n    self._caller = lambda f: f()\n  File "C:\\Users\\daitoshokan\\Desktop\\web2py\\gluon\\tools.py", line 3449, in f\n    return action(*a, **b)\n  File "C:\\Users\\daitoshokan\\Desktop\\web2py\\applications\\SummonerReview\\controllers/default.py", line 249, in index\n    streakTuple = countStreak(mySummonerID)\n  File "C:\\Users\\daitoshokan\\Desktop\\web2py\\applications\\SummonerReview\\controllers/default.py", line 133, in countStreak\n    aMatch = matchesList[0]\nKeyError: 0\n'
p195
s.